; Function Attrs: mustprogress uwtable
define void @_ZN4AAHD11make_ahd_rbEv(ptr noundef nonnull readonly align 8 captures(none) dereferenceable(128) %0) local_unnamed_addr #0 align 2 {
  %2 = getelementptr inbounds nuw i8, ptr %0, i64 120
  %3 = load ptr, ptr %2, align 8, !tbaa !95
  %4 = getelementptr inbounds nuw i8, ptr %3, i64 28
  %5 = load i16, ptr %4, align 4, !tbaa !11
  %.not = icmp eq i16 %5, 0
  br i1 %.not, label %._crit_edge, label %.lr.ph

.preheader:                                       ; preds = %.lr.ph
  %6 = icmp eq i16 %10, 0
  br i1 %6, label %._crit_edge, label %.lr.ph9

.lr.ph:                                           ; preds = %1, %.lr.ph
  %.067 = phi i32 [ %7, %.lr.ph ], [ 0, %1 ]
  tail call void @_ZN4AAHD14make_ahd_rb_hvEi(ptr noundef nonnull align 8 dereferenceable(128) %0, i32 noundef %.067)
  %7 = add nuw nsw i32 %.067, 1
  %8 = load ptr, ptr %2, align 8, !tbaa !95
  %9 = getelementptr inbounds nuw i8, ptr %8, i64 28
  %10 = load i16, ptr %9, align 4, !tbaa !11
  %11 = zext i16 %10 to i32
  %12 = icmp samesign ult i32 %7, %11
  br i1 %12, label %.lr.ph, label %.preheader, !llvm.loop !139

._crit_edge:                                      ; preds = %.lr.ph9, %1, %.preheader
  ret void

.lr.ph9:                                          ; preds = %.preheader, %.lr.ph9
  %.08 = phi i32 [ %13, %.lr.ph9 ], [ 0, %.preheader ]
  tail call void @_ZN4AAHD16make_ahd_rb_lastEi(ptr noundef nonnull align 8 dereferenceable(128) %0, i32 noundef %.08)
  %13 = add nuw nsw i32 %.08, 1
  %14 = load ptr, ptr %2, align 8, !tbaa !95
  %15 = getelementptr inbounds nuw i8, ptr %14, i64 28
  %16 = load i16, ptr %15, align 4, !tbaa !11
  %17 = zext i16 %16 to i32
  %18 = icmp samesign ult i32 %13, %17
  br i1 %18, label %.lr.ph9, label %._crit_edge, !llvm.loop !140
}